; Function Attrs: cold nounwind optsize uwtable
define internal void @join_uninit(ptr noundef readonly captures(none) %0) #0 {
  %2 = getelementptr inbounds nuw i8, ptr %0, i64 72
  %3 = load ptr, ptr %2, align 8, !tbaa !4
  %4 = getelementptr inbounds nuw i8, ptr %3, i64 72
  %5 = getelementptr inbounds nuw i8, ptr %3, i64 8
  %6 = load i32, ptr %5, align 8, !tbaa !29
  %7 = icmp sgt i32 %6, 0
  br i1 %7, label %.lr.ph, label %.critedge

.lr.ph:                                           ; preds = %1, %9
  %indvars.iv = phi i64 [ %indvars.iv.next, %9 ], [ 0, %1 ]
  %8 = load ptr, ptr %4, align 8, !tbaa !30
  %.not = icmp eq ptr %8, null
  br i1 %.not, label %.critedge, label %9

9:                                                ; preds = %.lr.ph
  %10 = getelementptr inbounds nuw ptr, ptr %8, i64 %indvars.iv
  tail call void @av_frame_free(ptr noundef nonnull %10) #11
  %indvars.iv.next = add nuw nsw i64 %indvars.iv, 1
  %11 = load i32, ptr %5, align 8, !tbaa !29
  %12 = sext i32 %11 to i64
  %13 = icmp slt i64 %indvars.iv.next, %12
  br i1 %13, label %.lr.ph, label %.critedge, !llvm.loop !46

.critedge:                                        ; preds = %.lr.ph, %9, %1
  %14 = getelementptr inbounds nuw i8, ptr %3, i64 64
  tail call void @av_freep(ptr noundef nonnull %14) #11
  %15 = getelementptr inbounds nuw i8, ptr %3, i64 80
  tail call void @av_freep(ptr noundef nonnull %15) #11
  tail call void @av_freep(ptr noundef nonnull %4) #11
  ret void
}